; Function Attrs: mustprogress noreturn uwtable
define internal fastcc void @"_ZZN23Logging_FatalThrow_Test8TestBodyEvENK3$_1clEv"() unnamed_addr #28 align 2 personality ptr @__gxx_personality_v0 {
  %1 = tail call ptr @__cxa_allocate_exception(i64 16) #35
  invoke void @_ZNSt11logic_errorC1EPKc(ptr noundef nonnull align 8 dereferenceable(16) %1, ptr noundef nonnull @.str.522)
          to label %2 unwind label %3

2:                                                ; preds = %0
  tail call void @__cxa_throw(ptr nonnull %1, ptr nonnull @_ZTISt11logic_error, ptr nonnull @_ZNSt11logic_errorD1Ev) #36
  unreachable

3:                                                ; preds = %0
  %4 = landingpad { ptr, i32 }
          cleanup
  tail call void @__cxa_free_exception(ptr %1) #35
  resume { ptr, i32 } %4
}